target datalayout = "e-m:e-p270:32:32-p271:32:32-p272:64:64-i64:64-i128:128-f80:128-n8:16:32:64-S128"
target triple = "x86_64-pc-linux-gnu"

%struct.psa_key_attributes_s = type { i16, i16, i32, %struct.psa_key_policy_s, i32 }
%struct.psa_key_policy_s = type { i32, i32, i32 }

; Function Attrs: inlinehint nounwind uwtable
define internal i32 @mbedtls_md_type_from_psa_alg(i32 noundef %0) #7 {
  %2 = alloca i32, align 4
  store i32 %0, ptr %2, align 4, !tbaa !17
  %3 = load i32, ptr %2, align 4, !tbaa !17
  %4 = and i32 %3, 255
  ret i32 %4
}

; Function Attrs: nounwind uwtable
define internal i32 @psa_rsa_oaep_set_padding_mode(i32 noundef %0, ptr noundef %1) #0 {
  %3 = alloca i32, align 4
  %4 = alloca i32, align 4
  %5 = alloca ptr, align 8
  %6 = alloca i32, align 4
  %7 = alloca i32, align 4
  %8 = alloca i32, align 4
  store i32 %0, ptr %4, align 4, !tbaa !17
  store ptr %1, ptr %5, align 8, !tbaa !15
  call void @llvm.lifetime.start.p0(i64 4, ptr %6) #8
  %9 = load i32, ptr %4, align 4, !tbaa !17
  %10 = and i32 %9, -256
  %11 = icmp eq i32 %10, 117441280
  br i1 %11, label %12, label %16

12:                                               ; preds = %2
  %13 = load i32, ptr %4, align 4, !tbaa !17
  %14 = and i32 %13, 255
  %15 = or i32 %14, 33554432
  br label %17

16:                                               ; preds = %2
  br label %17

17:                                               ; preds = %16, %12
  %18 = phi i32 [ %15, %12 ], [ 0, %16 ]
  store i32 %18, ptr %6, align 4, !tbaa !17
  call void @llvm.lifetime.start.p0(i64 4, ptr %7) #8
  %19 = load i32, ptr %6, align 4, !tbaa !17
  %20 = call i32 @mbedtls_md_type_from_psa_alg(i32 noundef %19)
  store i32 %20, ptr %7, align 4, !tbaa !17
  %21 = load i32, ptr %7, align 4, !tbaa !17
  %22 = call ptr @mbedtls_md_info_from_type(i32 noundef %21)
  %23 = icmp eq ptr %22, null
  br i1 %23, label %24, label %25

24:                                               ; preds = %17
  store i32 -134, ptr %3, align 4
  store i32 1, ptr %8, align 4
  br label %29

25:                                               ; preds = %17
  %26 = load ptr, ptr %5, align 8, !tbaa !15
  %27 = load i32, ptr %7, align 4, !tbaa !17
  %28 = call i32 @mbedtls_rsa_set_padding(ptr noundef %26, i32 noundef 1, i32 noundef %27)
  store i32 %28, ptr %3, align 4
  store i32 1, ptr %8, align 4
  br label %29

29:                                               ; preds = %25, %24
  call void @llvm.lifetime.end.p0(i64 4, ptr %7) #8
  call void @llvm.lifetime.end.p0(i64 4, ptr %6) #8
  %30 = load i32, ptr %3, align 4
  ret i32 %30
}

; Function Attrs: nounwind uwtable
define hidden i32 @mbedtls_psa_asymmetric_encrypt(ptr noundef %0, ptr noundef %1, i64 noundef %2, i32 noundef %3, ptr noundef %4, i64 noundef %5, ptr noundef %6, i64 noundef %7, ptr noundef %8, i64 noundef %9, ptr noundef %10) #0 {
  %12 = alloca ptr, align 8
  %13 = alloca ptr, align 8
  %14 = alloca i64, align 8
  %15 = alloca i32, align 4
  %16 = alloca ptr, align 8
  %17 = alloca i64, align 8
  %18 = alloca ptr, align 8
  %19 = alloca i64, align 8
  %20 = alloca ptr, align 8
  %21 = alloca i64, align 8
  %22 = alloca ptr, align 8
  %23 = alloca i32, align 4
  %24 = alloca ptr, align 8
  store ptr %0, ptr %12, align 8, !tbaa !19
  store ptr %1, ptr %13, align 8, !tbaa !7
  store i64 %2, ptr %14, align 8, !tbaa !10
  store i32 %3, ptr %15, align 4, !tbaa !17
  store ptr %4, ptr %16, align 8, !tbaa !7
  store i64 %5, ptr %17, align 8, !tbaa !10
  store ptr %6, ptr %18, align 8, !tbaa !7
  store i64 %7, ptr %19, align 8, !tbaa !10
  store ptr %8, ptr %20, align 8, !tbaa !7
  store i64 %9, ptr %21, align 8, !tbaa !10
  store ptr %10, ptr %22, align 8, !tbaa !21
  call void @llvm.lifetime.start.p0(i64 4, ptr %23) #8
  store i32 -151, ptr %23, align 4, !tbaa !17
  %25 = load ptr, ptr %12, align 8, !tbaa !19
  %26 = getelementptr inbounds nuw %struct.psa_key_attributes_s, ptr %25, i32 0, i32 0
  %27 = load i16, ptr %26, align 4, !tbaa !23
  %28 = zext i16 %27 to i32
  %29 = and i32 %28, -12289
  %30 = icmp eq i32 %29, 16385
  br i1 %30, label %31, label %91

31:                                               ; preds = %11
  call void @llvm.lifetime.start.p0(i64 8, ptr %24) #8
  store ptr null, ptr %24, align 8, !tbaa !15
  %32 = load ptr, ptr %12, align 8, !tbaa !19
  %33 = getelementptr inbounds nuw %struct.psa_key_attributes_s, ptr %32, i32 0, i32 0
  %34 = load i16, ptr %33, align 4, !tbaa !23
  %35 = load ptr, ptr %13, align 8, !tbaa !7
  %36 = load i64, ptr %14, align 8, !tbaa !10
  %37 = call i32 @mbedtls_psa_rsa_load_representation(i16 noundef zeroext %34, ptr noundef %35, i64 noundef %36, ptr noundef %24)
  store i32 %37, ptr %23, align 4, !tbaa !17
  %38 = load i32, ptr %23, align 4, !tbaa !17
  %39 = icmp ne i32 %38, 0
  br i1 %39, label %40, label %41

40:                                               ; preds = %31
  br label %81

41:                                               ; preds = %31
  %42 = load i64, ptr %21, align 8, !tbaa !10
  %43 = load ptr, ptr %24, align 8, !tbaa !15
  %44 = call i64 @mbedtls_rsa_get_len(ptr noundef %43)
  %45 = icmp ult i64 %42, %44
  br i1 %45, label %46, label %47

46:                                               ; preds = %41
  store i32 -138, ptr %23, align 4, !tbaa !17
  br label %81

47:                                               ; preds = %41
  %48 = load i32, ptr %15, align 4, !tbaa !17
  %49 = icmp eq i32 %48, 117441024
  br i1 %49, label %50, label %57

50:                                               ; preds = %47
  %51 = load ptr, ptr %24, align 8, !tbaa !15
  %52 = load i64, ptr %17, align 8, !tbaa !10
  %53 = load ptr, ptr %16, align 8, !tbaa !7
  %54 = load ptr, ptr %20, align 8, !tbaa !7
  %55 = call i32 @mbedtls_rsa_pkcs1_encrypt(ptr noundef %51, ptr noundef @mbedtls_psa_get_random, ptr noundef null, i64 noundef %52, ptr noundef %53, ptr noundef %54)
  %56 = call i32 @mbedtls_to_psa_error(i32 noundef %55)
  store i32 %56, ptr %23, align 4, !tbaa !17
  br label %80

57:                                               ; preds = %47
  %58 = load i32, ptr %15, align 4, !tbaa !17
  %59 = and i32 %58, -256
  %60 = icmp eq i32 %59, 117441280
  br i1 %60, label %61, label %78

61:                                               ; preds = %57
  %62 = load i32, ptr %15, align 4, !tbaa !17
  %63 = load ptr, ptr %24, align 8, !tbaa !15
  %64 = call i32 @psa_rsa_oaep_set_padding_mode(i32 noundef %62, ptr noundef %63)
  %65 = call i32 @mbedtls_to_psa_error(i32 noundef %64)
  store i32 %65, ptr %23, align 4, !tbaa !17
  %66 = load i32, ptr %23, align 4, !tbaa !17
  %67 = icmp ne i32 %66, 0
  br i1 %67, label %68, label %69

68:                                               ; preds = %61
  br label %81

69:                                               ; preds = %61
  %70 = load ptr, ptr %24, align 8, !tbaa !15
  %71 = load ptr, ptr %18, align 8, !tbaa !7
  %72 = load i64, ptr %19, align 8, !tbaa !10
  %73 = load i64, ptr %17, align 8, !tbaa !10
  %74 = load ptr, ptr %16, align 8, !tbaa !7
  %75 = load ptr, ptr %20, align 8, !tbaa !7
  %76 = call i32 @mbedtls_rsa_rsaes_oaep_encrypt(ptr noundef %70, ptr noundef @mbedtls_psa_get_random, ptr noundef null, ptr noundef %71, i64 noundef %72, i64 noundef %73, ptr noundef %74, ptr noundef %75)
  %77 = call i32 @mbedtls_to_psa_error(i32 noundef %76)
  store i32 %77, ptr %23, align 4, !tbaa !17
  br label %79

78:                                               ; preds = %57
  store i32 -135, ptr %23, align 4, !tbaa !17
  br label %79

79:                                               ; preds = %78, %69
  br label %80

80:                                               ; preds = %79, %50
  br label %81

81:                                               ; preds = %80, %68, %46, %40
  %82 = load i32, ptr %23, align 4, !tbaa !17
  %83 = icmp eq i32 %82, 0
  br i1 %83, label %84, label %88

84:                                               ; preds = %81
  %85 = load ptr, ptr %24, align 8, !tbaa !15
  %86 = call i64 @mbedtls_rsa_get_len(ptr noundef %85)
  %87 = load ptr, ptr %22, align 8, !tbaa !21
  store i64 %86, ptr %87, align 8, !tbaa !10
  br label %88

88:                                               ; preds = %84, %81
  %89 = load ptr, ptr %24, align 8, !tbaa !15
  call void @mbedtls_rsa_free(ptr noundef %89)
  %90 = load ptr, ptr %24, align 8, !tbaa !15
  call void @free(ptr noundef %90) #8
  call void @llvm.lifetime.end.p0(i64 8, ptr %24) #8
  br label %92

91:                                               ; preds = %11
  store i32 -134, ptr %23, align 4, !tbaa !17
  br label %92

92:                                               ; preds = %91, %88
  %93 = load i32, ptr %23, align 4, !tbaa !17
  call void @llvm.lifetime.end.p0(i64 4, ptr %23) #8
  ret i32 %93
}