; Function Attrs: nounwind uwtable
define hidden i32 @mbedtls_psa_asymmetric_encrypt(ptr noundef readonly captures(none) %0, ptr noundef %1, i64 noundef %2, i32 noundef %3, ptr noundef %4, i64 noundef %5, ptr noundef %6, i64 noundef %7, ptr noundef %8, i64 noundef %9, ptr noundef writeonly captures(none) %10) local_unnamed_addr #0 {
  %12 = alloca ptr, align 8
  %13 = load i16, ptr %0, align 4, !tbaa !8
  %14 = and i16 %13, -12289
  %15 = icmp eq i16 %14, 16385
  br i1 %15, label %16, label %42

16:                                               ; preds = %11
  call void @llvm.lifetime.start.p0(i64 8, ptr nonnull %12) #9
  %17 = call i32 @mbedtls_psa_rsa_load_representation(i16 noundef zeroext %13, ptr noundef %1, i64 noundef %2, ptr noundef nonnull %12)
  %.not = icmp eq i32 %17, 0
  %.pre = load ptr, ptr %12, align 8, !tbaa !3
  br i1 %.not, label %18, label %.thread

18:                                               ; preds = %16
  %19 = tail call i64 @mbedtls_rsa_get_len(ptr noundef %.pre) #9
  %20 = icmp ult i64 %9, %19
  br i1 %20, label %.thread, label %21

21:                                               ; preds = %18
  %22 = icmp eq i32 %3, 117441024
  br i1 %22, label %23, label %25

23:                                               ; preds = %21
  %24 = tail call i32 @mbedtls_rsa_pkcs1_encrypt(ptr noundef %.pre, ptr noundef nonnull @mbedtls_psa_get_random, ptr noundef null, i64 noundef %5, ptr noundef %4, ptr noundef %8) #9
  br label %37

25:                                               ; preds = %21
  %26 = and i32 %3, -256
  %27 = icmp eq i32 %26, 117441280
  br i1 %27, label %28, label %.thread

28:                                               ; preds = %25
  %29 = and i32 %3, 255
  %30 = tail call ptr @mbedtls_md_info_from_type(i32 noundef %29) #9
  %31 = icmp eq ptr %30, null
  br i1 %31, label %psa_rsa_oaep_set_padding_mode.exit, label %32

32:                                               ; preds = %28
  %33 = tail call i32 @mbedtls_rsa_set_padding(ptr noundef %.pre, i32 noundef 1, i32 noundef %29) #9
  br label %psa_rsa_oaep_set_padding_mode.exit

psa_rsa_oaep_set_padding_mode.exit:               ; preds = %28, %32
  %.0.i = phi i32 [ %33, %32 ], [ -134, %28 ]
  %34 = tail call i32 @mbedtls_to_psa_error(i32 noundef %.0.i) #9
  %.not23 = icmp eq i32 %34, 0
  br i1 %.not23, label %35, label %.thread

35:                                               ; preds = %psa_rsa_oaep_set_padding_mode.exit
  %36 = tail call i32 @mbedtls_rsa_rsaes_oaep_encrypt(ptr noundef %.pre, ptr noundef nonnull @mbedtls_psa_get_random, ptr noundef null, ptr noundef %6, i64 noundef %7, i64 noundef %5, ptr noundef %4, ptr noundef %8) #9
  br label %37

37:                                               ; preds = %23, %35
  %.sink = phi i32 [ %24, %23 ], [ %36, %35 ]
  %38 = tail call i32 @mbedtls_to_psa_error(i32 noundef %.sink) #9
  %39 = icmp eq i32 %38, 0
  br i1 %39, label %40, label %.thread

40:                                               ; preds = %37
  %41 = tail call i64 @mbedtls_rsa_get_len(ptr noundef %.pre) #9
  store i64 %41, ptr %10, align 8, !tbaa !13
  br label %.thread

.thread:                                          ; preds = %25, %18, %psa_rsa_oaep_set_padding_mode.exit, %16, %40, %37
  %.025 = phi i32 [ 0, %40 ], [ %38, %37 ], [ -135, %25 ], [ -138, %18 ], [ %34, %psa_rsa_oaep_set_padding_mode.exit ], [ %17, %16 ]
  tail call void @mbedtls_rsa_free(ptr noundef %.pre) #9
  tail call void @free(ptr noundef %.pre) #9
  call void @llvm.lifetime.end.p0(i64 8, ptr nonnull %12) #9
  br label %42

42:                                               ; preds = %11, %.thread
  %.1 = phi i32 [ %.025, %.thread ], [ -134, %11 ]
  ret i32 %.1
}